target datalayout = "e-m:e-p270:32:32-p271:32:32-p272:64:64-i64:64-i128:128-f80:128-n8:16:32:64-S128"
target triple = "x86_64-pc-linux-gnu"

%struct.test_fixture = type { ptr, ptr, ptr, ptr, ptr, ptr, i32, ptr, ptr, ptr, i32, i32, i32 }

@.str.14 = private unnamed_addr constant [35 x i8] c"../openssl/test/cmp_protect_test.c\00", align 1
@.str.97 = private unnamed_addr constant [2 x i8] c"0\00", align 1
@.str.103 = private unnamed_addr constant [77 x i8] c"ossl_cmp_X509_STORE_add1_certs(store, fixture->certs, fixture->callback_arg)\00", align 1
@.str.104 = private unnamed_addr constant [38 x i8] c"STACK_OF_X509_cmp(sk, fixture->chain)\00", align 1

; Function Attrs: nounwind uwtable
define internal i32 @execute_X509_STORE_test(ptr noundef %0) #0 {
  %2 = alloca ptr, align 8
  %3 = alloca ptr, align 8
  %4 = alloca ptr, align 8
  %5 = alloca i32, align 4
  store ptr %0, ptr %2, align 8, !tbaa !19
  call void @llvm.lifetime.start.p0(i64 8, ptr %3) #5
  %6 = call ptr @X509_STORE_new()
  store ptr %6, ptr %3, align 8, !tbaa !73
  call void @llvm.lifetime.start.p0(i64 8, ptr %4) #5
  store ptr null, ptr %4, align 8, !tbaa !54
  call void @llvm.lifetime.start.p0(i64 4, ptr %5) #5
  store i32 0, ptr %5, align 4, !tbaa !21
  %7 = load ptr, ptr %3, align 8, !tbaa !73
  %8 = load ptr, ptr %2, align 8, !tbaa !19
  %9 = getelementptr inbounds nuw %struct.test_fixture, ptr %8, i32 0, i32 8
  %10 = load ptr, ptr %9, align 8, !tbaa !47
  %11 = load ptr, ptr %2, align 8, !tbaa !19
  %12 = getelementptr inbounds nuw %struct.test_fixture, ptr %11, i32 0, i32 11
  %13 = load i32, ptr %12, align 4, !tbaa !49
  %14 = call i32 @ossl_cmp_X509_STORE_add1_certs(ptr noundef %7, ptr noundef %10, i32 noundef %13)
  %15 = icmp ne i32 %14, 0
  %16 = zext i1 %15 to i32
  %17 = call i32 @test_true(ptr noundef @.str.14, i32 noundef 477, ptr noundef @.str.103, i32 noundef %16)
  %18 = icmp ne i32 %17, 0
  br i1 %18, label %20, label %19

19:                                               ; preds = %1
  br label %32

20:                                               ; preds = %1
  %21 = load ptr, ptr %3, align 8, !tbaa !73
  %22 = call ptr @X509_STORE_get1_all_certs(ptr noundef %21)
  store ptr %22, ptr %4, align 8, !tbaa !54
  %23 = load ptr, ptr %4, align 8, !tbaa !54
  %24 = load ptr, ptr %2, align 8, !tbaa !19
  %25 = getelementptr inbounds nuw %struct.test_fixture, ptr %24, i32 0, i32 9
  %26 = load ptr, ptr %25, align 8, !tbaa !48
  %27 = call i32 @STACK_OF_X509_cmp(ptr noundef %23, ptr noundef %26)
  %28 = call i32 @test_int_eq(ptr noundef @.str.14, i32 noundef 480, ptr noundef @.str.97, ptr noundef @.str.104, i32 noundef 0, i32 noundef %27)
  %29 = icmp ne i32 %28, 0
  br i1 %29, label %31, label %30

30:                                               ; preds = %20
  br label %32

31:                                               ; preds = %20
  store i32 1, ptr %5, align 4, !tbaa !21
  br label %32

32:                                               ; preds = %31, %30, %19
  %33 = load ptr, ptr %3, align 8, !tbaa !73
  call void @X509_STORE_free(ptr noundef %33)
  %34 = load ptr, ptr %4, align 8, !tbaa !54
  call void @OSSL_STACK_OF_X509_free(ptr noundef %34)
  %35 = load i32, ptr %5, align 4, !tbaa !21
  call void @llvm.lifetime.end.p0(i64 4, ptr %5) #5
  call void @llvm.lifetime.end.p0(i64 8, ptr %4) #5
  call void @llvm.lifetime.end.p0(i64 8, ptr %3) #5
  ret i32 %35
}