; Function Attrs: nounwind uwtable
define internal fastcc range(i32 0, 2) i32 @execute_X509_STORE_test(ptr noundef nonnull readonly captures(none) %0) unnamed_addr #0 {
  %2 = tail call ptr @X509_STORE_new() #5
  %3 = getelementptr inbounds nuw i8, ptr %0, i64 64
  %4 = load ptr, ptr %3, align 8, !tbaa !39
  %5 = getelementptr inbounds nuw i8, ptr %0, i64 84
  %6 = load i32, ptr %5, align 4, !tbaa !46
  %7 = tail call i32 @ossl_cmp_X509_STORE_add1_certs(ptr noundef %2, ptr noundef %4, i32 noundef %6) #5
  %8 = icmp ne i32 %7, 0
  %9 = zext i1 %8 to i32
  %10 = tail call i32 @test_true(ptr noundef nonnull @.str.14, i32 noundef 477, ptr noundef nonnull @.str.103, i32 noundef %9) #5
  %.not = icmp eq i32 %10, 0
  br i1 %.not, label %17, label %11

11:                                               ; preds = %1
  %12 = tail call ptr @X509_STORE_get1_all_certs(ptr noundef %2) #5
  %13 = getelementptr inbounds nuw i8, ptr %0, i64 72
  %14 = load ptr, ptr %13, align 8, !tbaa !40
  %15 = tail call i32 @STACK_OF_X509_cmp(ptr noundef %12, ptr noundef %14) #5
  %16 = tail call i32 @test_int_eq(ptr noundef nonnull @.str.14, i32 noundef 480, ptr noundef nonnull @.str.97, ptr noundef nonnull @.str.104, i32 noundef 0, i32 noundef %15) #5
  %.not9 = icmp ne i32 %16, 0
  %spec.select = zext i1 %.not9 to i32
  br label %17

17:                                               ; preds = %11, %1
  %.08 = phi ptr [ null, %1 ], [ %12, %11 ]
  %.0 = phi i32 [ 0, %1 ], [ %spec.select, %11 ]
  tail call void @X509_STORE_free(ptr noundef %2) #5
  tail call void @OSSL_STACK_OF_X509_free(ptr noundef %.08) #5
  ret i32 %.0
}